ARM GAS  C:\Users\LOCALA~1\AppData\Local\Temp\ccx8qq1W.s 			page 1


   1              		.syntax unified
   2              		.cpu cortex-m0
   3              		.fpu softvfp
   4              		.eabi_attribute 20, 1
   5              		.eabi_attribute 21, 1
   6              		.eabi_attribute 23, 3
   7              		.eabi_attribute 24, 1
   8              		.eabi_attribute 25, 1
   9              		.eabi_attribute 26, 1
  10              		.eabi_attribute 30, 1
  11              		.eabi_attribute 34, 0
  12              		.eabi_attribute 18, 4
  13              		.thumb
  14              		.syntax unified
  15              		.file	"main.c"
  16              		.text
  17              	.Ltext0:
  18              		.cfi_sections	.debug_frame
  19              		.section	.text.TC_ISR_Handler,"ax",%progbits
  20              		.align	2
  21              		.global	TC_ISR_Handler
  22              		.code	16
  23              		.thumb_func
  24              		.type	TC_ISR_Handler, %function
  25              	TC_ISR_Handler:
  26              	.LFB35:
  27              		.file 1 "main.c"
   1:main.c        **** /* ========================================
   2:main.c        ****  *
   3:main.c        ****  * Copyright YOUR COMPANY, THE YEAR
   4:main.c        ****  * All Rights Reserved
   5:main.c        ****  * UNPUBLISHED, LICENSED SOFTWARE.
   6:main.c        ****  *
   7:main.c        ****  * CONFIDENTIAL AND PROPRIETARY INFORMATION
   8:main.c        ****  * WHICH IS THE PROPERTY OF your company.
   9:main.c        ****  *
  10:main.c        ****  * ========================================
  11:main.c        **** */
  12:main.c        **** #include "project.h"
  13:main.c        **** #include <stdio.h>
  14:main.c        **** 
  15:main.c        **** typedef unsigned char Bool;
  16:main.c        **** 
  17:main.c        **** #define False 0
  18:main.c        **** #define True (!False)
  19:main.c        **** 
  20:main.c        **** Bool increment = True;
  21:main.c        **** Bool interrupt = False;
  22:main.c        **** 
  23:main.c        **** CY_ISR(TC_ISR_Handler)
  24:main.c        **** {
  28              		.loc 1 24 0
  29              		.cfi_startproc
  30              		@ args = 0, pretend = 0, frame = 0
  31              		@ frame_needed = 0, uses_anonymous_args = 0
  32 0000 10B5     		push	{r4, lr}
  33              		.cfi_def_cfa_offset 8
ARM GAS  C:\Users\LOCALA~1\AppData\Local\Temp\ccx8qq1W.s 			page 2


  34              		.cfi_offset 4, -8
  35              		.cfi_offset 14, -4
  25:main.c        ****     /* Interrupt is cleared */ 
  26:main.c        **** 
  27:main.c        ****     
  28:main.c        ****     interrupt = True;
  36              		.loc 1 28 0
  37 0002 0122     		movs	r2, #1
  38 0004 024B     		ldr	r3, .L2
  39 0006 1A70     		strb	r2, [r3]
  29:main.c        **** 
  30:main.c        ****    
  31:main.c        ****     
  32:main.c        ****     PWM_ClearInterrupt(PWM_INTR_MASK_TC);
  40              		.loc 1 32 0
  41 0008 0120     		movs	r0, #1
  42 000a FFF7FEFF 		bl	PWM_ClearInterrupt
  43              	.LVL0:
  33:main.c        **** 
  34:main.c        ****     /* LED is toggled ON and OFF */
  35:main.c        ****     //LED_RED_Write(~LED_RED_Read());
  36:main.c        **** }
  44              		.loc 1 36 0
  45              		@ sp needed
  46 000e 10BD     		pop	{r4, pc}
  47              	.L3:
  48              		.align	2
  49              	.L2:
  50 0010 00000000 		.word	.LANCHOR0
  51              		.cfi_endproc
  52              	.LFE35:
  53              		.size	TC_ISR_Handler, .-TC_ISR_Handler
  54              		.section	.text.main,"ax",%progbits
  55              		.align	2
  56              		.global	main
  57              		.code	16
  58              		.thumb_func
  59              		.type	main, %function
  60              	main:
  61              	.LFB36:
  37:main.c        **** 
  38:main.c        **** /*******************************************************************************
  39:main.c        **** * Function Name: main
  40:main.c        **** ********************************************************************************
  41:main.c        **** *
  42:main.c        **** *  The main function performs the following actions:
  43:main.c        **** *   1. Sets up and enables the PWM and its interrupt.
  44:main.c        **** *   2. Starts the PWM Component
  45:main.c        **** *
  46:main.c        **** *******************************************************************************/
  47:main.c        **** int main(void)
  48:main.c        **** {
  62              		.loc 1 48 0
  63              		.cfi_startproc
  64              		@ args = 0, pretend = 0, frame = 8
  65              		@ frame_needed = 0, uses_anonymous_args = 0
  66 0000 30B5     		push	{r4, r5, lr}
ARM GAS  C:\Users\LOCALA~1\AppData\Local\Temp\ccx8qq1W.s 			page 3


  67              		.cfi_def_cfa_offset 12
  68              		.cfi_offset 4, -12
  69              		.cfi_offset 5, -8
  70              		.cfi_offset 14, -4
  71 0002 83B0     		sub	sp, sp, #12
  72              		.cfi_def_cfa_offset 24
  73              	.LVL1:
  49:main.c        ****     int num = 123;
  50:main.c        ****     char str[6];
  51:main.c        ****     uint16 counter;
  52:main.c        ****     
  53:main.c        ****     /* Enable global interrupts. */
  54:main.c        ****     CyGlobalIntEnable; 
  74              		.loc 1 54 0
  75              		.syntax divided
  76              	@ 54 "main.c" 1
  77 0004 62B6     		CPSIE   i
  78              	@ 0 "" 2
  55:main.c        ****     
  56:main.c        ****     /* Enable interrupt component and set up handler */
  57:main.c        ****     TC_ISR_StartEx(TC_ISR_Handler);
  79              		.loc 1 57 0
  80              		.thumb
  81              		.syntax unified
  82 0006 2848     		ldr	r0, .L11
  83 0008 FFF7FEFF 		bl	TC_ISR_StartEx
  84              	.LVL2:
  58:main.c        ****     
  59:main.c        ****     /* Start the PWM Component */
  60:main.c        ****     PWM_Start();
  85              		.loc 1 60 0
  86 000c FFF7FEFF 		bl	PWM_Start
  87              	.LVL3:
  61:main.c        ****     UART_Start();
  88              		.loc 1 61 0
  89 0010 FFF7FEFF 		bl	UART_Start
  90              	.LVL4:
  62:main.c        ****     
  63:main.c        ****     UART_UartPutString("PWM Example written by Johann Schmid\x0d\x0a");
  91              		.loc 1 63 0
  92 0014 2548     		ldr	r0, .L11+4
  93 0016 FFF7FEFF 		bl	UART_UartPutString
  94              	.LVL5:
  64:main.c        ****     UART_UartPutString("visit my channel youtube.de/@elektrotechnik2go\x0d\x0a");
  95              		.loc 1 64 0
  96 001a 2548     		ldr	r0, .L11+8
  97 001c FFF7FEFF 		bl	UART_UartPutString
  98              	.LVL6:
  99              	.L5:
  65:main.c        ****     
  66:main.c        ****     for(;;)
  67:main.c        ****     {
  68:main.c        **** 
  69:main.c        ****     if (interrupt == True)
 100              		.loc 1 69 0
 101 0020 244B     		ldr	r3, .L11+12
 102 0022 1B78     		ldrb	r3, [r3]
ARM GAS  C:\Users\LOCALA~1\AppData\Local\Temp\ccx8qq1W.s 			page 4


 103 0024 012B     		cmp	r3, #1
 104 0026 FBD1     		bne	.L5
  70:main.c        ****     {
  71:main.c        ****         counter = PWM_ReadCompare();
 105              		.loc 1 71 0
 106 0028 FFF7FEFF 		bl	PWM_ReadCompare
 107              	.LVL7:
 108 002c 0500     		movs	r5, r0
 109 002e 84B2     		uxth	r4, r0
 110              	.LVL8:
  72:main.c        ****         
  73:main.c        ****         if (counter == 10000)
 111              		.loc 1 73 0
 112 0030 214B     		ldr	r3, .L11+16
 113 0032 9C42     		cmp	r4, r3
 114 0034 13D1     		bne	.L6
  74:main.c        ****         {
  75:main.c        ****             increment = False;
 115              		.loc 1 75 0
 116 0036 0022     		movs	r2, #0
 117 0038 204B     		ldr	r3, .L11+20
 118 003a 1A70     		strb	r2, [r3]
  76:main.c        ****             
  77:main.c        ****             sprintf(str, "%d", counter);
 119              		.loc 1 77 0
 120 003c 0204     		lsls	r2, r0, #16
 121 003e 120C     		lsrs	r2, r2, #16
 122 0040 1F49     		ldr	r1, .L11+24
 123 0042 6846     		mov	r0, sp
 124 0044 FFF7FEFF 		bl	sprintf
 125              	.LVL9:
  78:main.c        ****             strncat(str, "\x0d\x0a", 2);
 126              		.loc 1 78 0
 127 0048 6846     		mov	r0, sp
 128 004a FFF7FEFF 		bl	strlen
 129              	.LVL10:
 130 004e 6844     		add	r0, r0, sp
 131 0050 0322     		movs	r2, #3
 132 0052 1C49     		ldr	r1, .L11+28
 133 0054 FFF7FEFF 		bl	memcpy
 134              	.LVL11:
  79:main.c        ****             UART_UartPutString(str);
 135              		.loc 1 79 0
 136 0058 6846     		mov	r0, sp
 137 005a FFF7FEFF 		bl	UART_UartPutString
 138              	.LVL12:
 139              	.L6:
  80:main.c        ****         }
  81:main.c        ****         
  82:main.c        ****         if (counter == 100)
 140              		.loc 1 82 0
 141 005e 642C     		cmp	r4, #100
 142 0060 13D1     		bne	.L7
  83:main.c        ****         {
  84:main.c        ****             increment = True;
 143              		.loc 1 84 0
 144 0062 0122     		movs	r2, #1
ARM GAS  C:\Users\LOCALA~1\AppData\Local\Temp\ccx8qq1W.s 			page 5


 145 0064 154B     		ldr	r3, .L11+20
 146 0066 1A70     		strb	r2, [r3]
  85:main.c        ****             
  86:main.c        ****             sprintf(str, "%d", counter);
 147              		.loc 1 86 0
 148 0068 2A04     		lsls	r2, r5, #16
 149 006a 120C     		lsrs	r2, r2, #16
 150 006c 1449     		ldr	r1, .L11+24
 151 006e 6846     		mov	r0, sp
 152 0070 FFF7FEFF 		bl	sprintf
 153              	.LVL13:
  87:main.c        ****             strncat(str, "\n", 2);
 154              		.loc 1 87 0
 155 0074 6846     		mov	r0, sp
 156 0076 FFF7FEFF 		bl	strlen
 157              	.LVL14:
 158 007a 6844     		add	r0, r0, sp
 159 007c 0222     		movs	r2, #2
 160 007e 1249     		ldr	r1, .L11+32
 161 0080 FFF7FEFF 		bl	memcpy
 162              	.LVL15:
  88:main.c        ****             UART_UartPutString(str);
 163              		.loc 1 88 0
 164 0084 6846     		mov	r0, sp
 165 0086 FFF7FEFF 		bl	UART_UartPutString
 166              	.LVL16:
 167              	.L7:
  89:main.c        ****         }
  90:main.c        ****         
  91:main.c        ****         if (increment == True)
 168              		.loc 1 91 0
 169 008a 0C4B     		ldr	r3, .L11+20
 170 008c 1B78     		ldrb	r3, [r3]
 171 008e 012B     		cmp	r3, #1
 172 0090 02D1     		bne	.L8
  92:main.c        ****         { 
  93:main.c        ****             counter = counter + 100;
 173              		.loc 1 93 0
 174 0092 6434     		adds	r4, r4, #100
 175              	.LVL17:
 176 0094 A0B2     		uxth	r0, r4
 177              	.LVL18:
 178 0096 01E0     		b	.L9
 179              	.LVL19:
 180              	.L8:
  94:main.c        ****         }
  95:main.c        ****         else
  96:main.c        ****         {
  97:main.c        ****             counter = counter - 100;
 181              		.loc 1 97 0
 182 0098 643C     		subs	r4, r4, #100
 183              	.LVL20:
 184 009a A0B2     		uxth	r0, r4
 185              	.LVL21:
 186              	.L9:
  98:main.c        ****         }
  99:main.c        ****         
ARM GAS  C:\Users\LOCALA~1\AppData\Local\Temp\ccx8qq1W.s 			page 6


 100:main.c        ****         PWM_WriteCompare(counter);
 187              		.loc 1 100 0
 188 009c FFF7FEFF 		bl	PWM_WriteCompare
 189              	.LVL22:
 101:main.c        ****         
 102:main.c        ****         interrupt = False;
 190              		.loc 1 102 0
 191 00a0 0022     		movs	r2, #0
 192 00a2 044B     		ldr	r3, .L11+12
 193 00a4 1A70     		strb	r2, [r3]
 194 00a6 BBE7     		b	.L5
 195              	.L12:
 196              		.align	2
 197              	.L11:
 198 00a8 00000000 		.word	TC_ISR_Handler
 199 00ac 00000000 		.word	.LC2
 200 00b0 28000000 		.word	.LC4
 201 00b4 00000000 		.word	.LANCHOR0
 202 00b8 10270000 		.word	10000
 203 00bc 00000000 		.word	.LANCHOR1
 204 00c0 5C000000 		.word	.LC8
 205 00c4 60000000 		.word	.LC10
 206 00c8 64000000 		.word	.LC12
 207              		.cfi_endproc
 208              	.LFE36:
 209              		.size	main, .-main
 210              		.global	interrupt
 211              		.global	increment
 212              		.data
 213              		.set	.LANCHOR1,. + 0
 214              		.type	increment, %object
 215              		.size	increment, 1
 216              	increment:
 217 0000 01       		.byte	1
 218              		.section	.rodata.str1.4,"aMS",%progbits,1
 219              		.align	2
 220              	.LC2:
 221 0000 50574D20 		.ascii	"PWM Example written by Johann Schmid\015\012\000"
 221      4578616D 
 221      706C6520 
 221      77726974 
 221      74656E20 
 222 0027 00       		.space	1
 223              	.LC4:
 224 0028 76697369 		.ascii	"visit my channel youtube.de/@elektrotechnik2go\015\012"
 224      74206D79 
 224      20636861 
 224      6E6E656C 
 224      20796F75 
 225 0058 00       		.ascii	"\000"
 226 0059 000000   		.space	3
 227              	.LC8:
 228 005c 256400   		.ascii	"%d\000"
 229 005f 00       		.space	1
 230              	.LC10:
 231 0060 0D0A00   		.ascii	"\015\012\000"
 232 0063 00       		.space	1
ARM GAS  C:\Users\LOCALA~1\AppData\Local\Temp\ccx8qq1W.s 			page 7


 233              	.LC12:
 234 0064 0A00     		.ascii	"\012\000"
 235              		.bss
 236              		.set	.LANCHOR0,. + 0
 237              		.type	interrupt, %object
 238              		.size	interrupt, 1
 239              	interrupt:
 240 0000 00       		.space	1
 241              		.text
 242              	.Letext0:
 243              		.file 2 "Generated_Source\\PSoC4/cytypes.h"
 244              		.file 3 "Generated_Source\\PSoC4/PWM.h"
 245              		.file 4 "Generated_Source\\PSoC4/TC_ISR.h"
 246              		.file 5 "Generated_Source\\PSoC4/UART.h"
 247              		.file 6 "Generated_Source\\PSoC4/UART_SPI_UART.h"
 248              		.file 7 "d:\\program files (x86)\\cypress\\psoc creator\\4.3\\psoc creator\\import\\gnu\\arm\\5.4.
 249              		.file 8 "<built-in>"